; Function Attrs: mustprogress uwtable
define void @_ZN3nix27Config_resetOverridden_Test8TestBodyEv(ptr nocapture nonnull readnone align 8 %0) unnamed_addr #4 align 2 personality ptr @__gxx_personality_v0 {
  %2 = alloca %"class.nix::Config", align 8
  %3 = alloca %"class.std::map", align 8
  %4 = getelementptr inbounds i8, ptr %3, i64 8
  %5 = getelementptr inbounds i8, ptr %3, i64 24
  call void @llvm.memset.p0.i64(ptr noundef nonnull align 8 dereferenceable(24) %3, i8 0, i64 24, i1 false)
  store ptr %4, ptr %5, align 8
  %6 = getelementptr inbounds i8, ptr %3, i64 32
  store ptr %4, ptr %6, align 8
  %7 = getelementptr inbounds i8, ptr %3, i64 40
  store i64 0, ptr %7, align 8
  invoke void @_ZN3nix6ConfigC1ESt3mapINSt7__cxx1112basic_stringIcSt11char_traitsIcESaIcEEES7_St4lessIS7_ESaISt4pairIKS7_S7_EEE(ptr noundef nonnull align 8 dereferenceable(104) %2, ptr noundef nonnull %3)
          to label %8 unwind label %27

8:                                                ; preds = %1
  %9 = getelementptr inbounds i8, ptr %3, i64 16
  %10 = load ptr, ptr %9, align 8
  invoke void @_ZNSt8_Rb_treeINSt7__cxx1112basic_stringIcSt11char_traitsIcESaIcEEESt4pairIKS5_S5_ESt10_Select1stIS8_ESt4lessIS5_ESaIS8_EE8_M_eraseEPSt13_Rb_tree_nodeIS8_E(ptr noundef nonnull align 8 dereferenceable(48) %3, ptr noundef %10)
          to label %_ZNSt3mapINSt7__cxx1112basic_stringIcSt11char_traitsIcESaIcEEES5_St4lessIS5_ESaISt4pairIKS5_S5_EEED2Ev.exit unwind label %11

11:                                               ; preds = %8
  %12 = landingpad { ptr, i32 }
          catch ptr null
  %13 = extractvalue { ptr, i32 } %12, 0
  call void @__clang_call_terminate(ptr %13) #30
  unreachable

_ZNSt3mapINSt7__cxx1112basic_stringIcSt11char_traitsIcESaIcEEES5_St4lessIS5_ESaISt4pairIKS5_S5_EEED2Ev.exit: ; preds = %8
  invoke void @_ZN3nix6Config15resetOverriddenEv(ptr noundef nonnull align 8 dereferenceable(104) %2)
          to label %14 unwind label %29

14:                                               ; preds = %_ZNSt3mapINSt7__cxx1112basic_stringIcSt11char_traitsIcESaIcEEES5_St4lessIS5_ESaISt4pairIKS5_S5_EEED2Ev.exit
  store ptr getelementptr inbounds ({ [8 x ptr] }, ptr @_ZTVN3nix6ConfigE, i64 0, i32 0, i64 2), ptr %2, align 8
  %15 = getelementptr inbounds i8, ptr %2, i64 56
  %16 = getelementptr inbounds i8, ptr %2, i64 72
  %17 = load ptr, ptr %16, align 8
  invoke void @_ZNSt8_Rb_treeINSt7__cxx1112basic_stringIcSt11char_traitsIcESaIcEEESt4pairIKS5_N3nix6Config11SettingDataEESt10_Select1stISB_ESt4lessIS5_ESaISB_EE8_M_eraseEPSt13_Rb_tree_nodeISB_E(ptr noundef nonnull align 8 dereferenceable(48) %15, ptr noundef %17)
          to label %_ZNSt3mapINSt7__cxx1112basic_stringIcSt11char_traitsIcESaIcEEEN3nix6Config11SettingDataESt4lessIS5_ESaISt4pairIKS5_S8_EEED2Ev.exit.i unwind label %18

18:                                               ; preds = %14
  %19 = landingpad { ptr, i32 }
          catch ptr null
  %20 = extractvalue { ptr, i32 } %19, 0
  call void @__clang_call_terminate(ptr %20) #30
  unreachable

_ZNSt3mapINSt7__cxx1112basic_stringIcSt11char_traitsIcESaIcEEEN3nix6Config11SettingDataESt4lessIS5_ESaISt4pairIKS5_S8_EEED2Ev.exit.i: ; preds = %14
  store ptr getelementptr inbounds ({ [8 x ptr] }, ptr @_ZTVN3nix14AbstractConfigE, i64 0, i32 0, i64 2), ptr %2, align 8
  %21 = getelementptr inbounds i8, ptr %2, i64 8
  %22 = getelementptr inbounds i8, ptr %2, i64 24
  %23 = load ptr, ptr %22, align 8
  invoke void @_ZNSt8_Rb_treeINSt7__cxx1112basic_stringIcSt11char_traitsIcESaIcEEESt4pairIKS5_S5_ESt10_Select1stIS8_ESt4lessIS5_ESaIS8_EE8_M_eraseEPSt13_Rb_tree_nodeIS8_E(ptr noundef nonnull align 8 dereferenceable(48) %21, ptr noundef %23)
          to label %_ZN3nix6ConfigD2Ev.exit unwind label %24

24:                                               ; preds = %_ZNSt3mapINSt7__cxx1112basic_stringIcSt11char_traitsIcESaIcEEEN3nix6Config11SettingDataESt4lessIS5_ESaISt4pairIKS5_S8_EEED2Ev.exit.i
  %25 = landingpad { ptr, i32 }
          catch ptr null
  %26 = extractvalue { ptr, i32 } %25, 0
  call void @__clang_call_terminate(ptr %26) #30
  unreachable

_ZN3nix6ConfigD2Ev.exit:                          ; preds = %_ZNSt3mapINSt7__cxx1112basic_stringIcSt11char_traitsIcESaIcEEEN3nix6Config11SettingDataESt4lessIS5_ESaISt4pairIKS5_S8_EEED2Ev.exit.i
  ret void

27:                                               ; preds = %1
  %28 = landingpad { ptr, i32 }
          cleanup
  call void @_ZNSt3mapINSt7__cxx1112basic_stringIcSt11char_traitsIcESaIcEEES5_St4lessIS5_ESaISt4pairIKS5_S5_EEED2Ev(ptr noundef nonnull align 8 dereferenceable(48) %3) #26
  br label %31

29:                                               ; preds = %_ZNSt3mapINSt7__cxx1112basic_stringIcSt11char_traitsIcESaIcEEES5_St4lessIS5_ESaISt4pairIKS5_S5_EEED2Ev.exit
  %30 = landingpad { ptr, i32 }
          cleanup
  call void @_ZN3nix6ConfigD2Ev(ptr noundef nonnull align 8 dereferenceable(104) %2) #26
  br label %31

31:                                               ; preds = %29, %27
  %.pn = phi { ptr, i32 } [ %30, %29 ], [ %28, %27 ]
  resume { ptr, i32 } %.pn
}